target datalayout = "e-m:e-p270:32:32-p271:32:32-p272:64:64-i64:64-i128:128-f80:128-n8:16:32:64-S128"
target triple = "x86_64-pc-linux-gnu"

; Function Attrs: inlinehint nounwind uwtable
define internal void @transpose_block_24_c(ptr noundef %0, i64 noundef %1, ptr noundef %2, i64 noundef %3, i32 noundef %4, i32 noundef %5) #8 {
  %7 = alloca ptr, align 8
  %8 = alloca i64, align 8
  %9 = alloca ptr, align 8
  %10 = alloca i64, align 8
  %11 = alloca i32, align 4
  %12 = alloca i32, align 4
  %13 = alloca i32, align 4
  %14 = alloca i32, align 4
  %15 = alloca i32, align 4
  store ptr %0, ptr %7, align 8, !tbaa !74
  store i64 %1, ptr %8, align 8, !tbaa !90
  store ptr %2, ptr %9, align 8, !tbaa !74
  store i64 %3, ptr %10, align 8, !tbaa !90
  store i32 %4, ptr %11, align 4, !tbaa !14
  store i32 %5, ptr %12, align 4, !tbaa !14
  call void @llvm.lifetime.start.p0(i64 4, ptr %13) #9
  call void @llvm.lifetime.start.p0(i64 4, ptr %14) #9
  store i32 0, ptr %14, align 4, !tbaa !14
  br label %16

16:                                               ; preds = %102, %6
  %17 = load i32, ptr %14, align 4, !tbaa !14
  %18 = load i32, ptr %12, align 4, !tbaa !14
  %19 = icmp slt i32 %17, %18
  br i1 %19, label %20, label %108

20:                                               ; preds = %16
  store i32 0, ptr %13, align 4, !tbaa !14
  br label %21

21:                                               ; preds = %98, %20
  %22 = load i32, ptr %13, align 4, !tbaa !14
  %23 = load i32, ptr %11, align 4, !tbaa !14
  %24 = icmp slt i32 %22, %23
  br i1 %24, label %25, label %101

25:                                               ; preds = %21
  call void @llvm.lifetime.start.p0(i64 4, ptr %15) #9
  %26 = load ptr, ptr %7, align 8, !tbaa !74
  %27 = load i32, ptr %13, align 4, !tbaa !14
  %28 = sext i32 %27 to i64
  %29 = load i64, ptr %8, align 8, !tbaa !90
  %30 = mul nsw i64 %28, %29
  %31 = getelementptr inbounds i8, ptr %26, i64 %30
  %32 = load i32, ptr %14, align 4, !tbaa !14
  %33 = mul nsw i32 %32, 3
  %34 = sext i32 %33 to i64
  %35 = getelementptr inbounds i8, ptr %31, i64 %34
  %36 = getelementptr inbounds i8, ptr %35, i64 0
  %37 = load i8, ptr %36, align 1, !tbaa !91
  %38 = zext i8 %37 to i32
  %39 = shl i32 %38, 16
  %40 = load ptr, ptr %7, align 8, !tbaa !74
  %41 = load i32, ptr %13, align 4, !tbaa !14
  %42 = sext i32 %41 to i64
  %43 = load i64, ptr %8, align 8, !tbaa !90
  %44 = mul nsw i64 %42, %43
  %45 = getelementptr inbounds i8, ptr %40, i64 %44
  %46 = load i32, ptr %14, align 4, !tbaa !14
  %47 = mul nsw i32 %46, 3
  %48 = sext i32 %47 to i64
  %49 = getelementptr inbounds i8, ptr %45, i64 %48
  %50 = getelementptr inbounds i8, ptr %49, i64 1
  %51 = load i8, ptr %50, align 1, !tbaa !91
  %52 = zext i8 %51 to i32
  %53 = shl i32 %52, 8
  %54 = or i32 %39, %53
  %55 = load ptr, ptr %7, align 8, !tbaa !74
  %56 = load i32, ptr %13, align 4, !tbaa !14
  %57 = sext i32 %56 to i64
  %58 = load i64, ptr %8, align 8, !tbaa !90
  %59 = mul nsw i64 %57, %58
  %60 = getelementptr inbounds i8, ptr %55, i64 %59
  %61 = load i32, ptr %14, align 4, !tbaa !14
  %62 = mul nsw i32 %61, 3
  %63 = sext i32 %62 to i64
  %64 = getelementptr inbounds i8, ptr %60, i64 %63
  %65 = getelementptr inbounds i8, ptr %64, i64 2
  %66 = load i8, ptr %65, align 1, !tbaa !91
  %67 = zext i8 %66 to i32
  %68 = or i32 %54, %67
  store i32 %68, ptr %15, align 4, !tbaa !14
  br label %69

69:                                               ; preds = %25
  %70 = load i32, ptr %15, align 4, !tbaa !14
  %71 = trunc i32 %70 to i8
  %72 = load ptr, ptr %9, align 8, !tbaa !74
  %73 = load i32, ptr %13, align 4, !tbaa !14
  %74 = mul nsw i32 3, %73
  %75 = sext i32 %74 to i64
  %76 = getelementptr inbounds i8, ptr %72, i64 %75
  %77 = getelementptr inbounds i8, ptr %76, i64 2
  store i8 %71, ptr %77, align 1, !tbaa !91
  %78 = load i32, ptr %15, align 4, !tbaa !14
  %79 = ashr i32 %78, 8
  %80 = trunc i32 %79 to i8
  %81 = load ptr, ptr %9, align 8, !tbaa !74
  %82 = load i32, ptr %13, align 4, !tbaa !14
  %83 = mul nsw i32 3, %82
  %84 = sext i32 %83 to i64
  %85 = getelementptr inbounds i8, ptr %81, i64 %84
  %86 = getelementptr inbounds i8, ptr %85, i64 1
  store i8 %80, ptr %86, align 1, !tbaa !91
  %87 = load i32, ptr %15, align 4, !tbaa !14
  %88 = ashr i32 %87, 16
  %89 = trunc i32 %88 to i8
  %90 = load ptr, ptr %9, align 8, !tbaa !74
  %91 = load i32, ptr %13, align 4, !tbaa !14
  %92 = mul nsw i32 3, %91
  %93 = sext i32 %92 to i64
  %94 = getelementptr inbounds i8, ptr %90, i64 %93
  %95 = getelementptr inbounds i8, ptr %94, i64 0
  store i8 %89, ptr %95, align 1, !tbaa !91
  br label %96

96:                                               ; preds = %69
  br label %97

97:                                               ; preds = %96
  call void @llvm.lifetime.end.p0(i64 4, ptr %15) #9
  br label %98

98:                                               ; preds = %97
  %99 = load i32, ptr %13, align 4, !tbaa !14
  %100 = add nsw i32 %99, 1
  store i32 %100, ptr %13, align 4, !tbaa !14
  br label %21, !llvm.loop !98

101:                                              ; preds = %21
  br label %102

102:                                              ; preds = %101
  %103 = load i32, ptr %14, align 4, !tbaa !14
  %104 = add nsw i32 %103, 1
  store i32 %104, ptr %14, align 4, !tbaa !14
  %105 = load i64, ptr %10, align 8, !tbaa !90
  %106 = load ptr, ptr %9, align 8, !tbaa !74
  %107 = getelementptr inbounds i8, ptr %106, i64 %105
  store ptr %107, ptr %9, align 8, !tbaa !74
  br label %16, !llvm.loop !99

108:                                              ; preds = %16
  call void @llvm.lifetime.end.p0(i64 4, ptr %14) #9
  call void @llvm.lifetime.end.p0(i64 4, ptr %13) #9
  ret void
}

; Function Attrs: nounwind uwtable
define internal void @transpose_8x8_24_c(ptr noundef %0, i64 noundef %1, ptr noundef %2, i64 noundef %3) #0 {
  %5 = alloca ptr, align 8
  %6 = alloca i64, align 8
  %7 = alloca ptr, align 8
  %8 = alloca i64, align 8
  store ptr %0, ptr %5, align 8, !tbaa !74
  store i64 %1, ptr %6, align 8, !tbaa !90
  store ptr %2, ptr %7, align 8, !tbaa !74
  store i64 %3, ptr %8, align 8, !tbaa !90
  %9 = load ptr, ptr %5, align 8, !tbaa !74
  %10 = load i64, ptr %6, align 8, !tbaa !90
  %11 = load ptr, ptr %7, align 8, !tbaa !74
  %12 = load i64, ptr %8, align 8, !tbaa !90
  call void @transpose_block_24_c(ptr noundef %9, i64 noundef %10, ptr noundef %11, i64 noundef %12, i32 noundef 8, i32 noundef 8)
  ret void
}