; Function Attrs: nofree norecurse nosync nounwind memory(argmem: readwrite) uwtable
define internal void @transpose_8x8_24_c(ptr noundef readonly captures(none) %0, i64 noundef %1, ptr noundef writeonly captures(none) %2, i64 noundef %3) #7 {
  br label %.preheader.us.i

.preheader.us.i:                                  ; preds = %._crit_edge.us.i, %4
  %indvars.iv36.i = phi i64 [ 0, %4 ], [ %indvars.iv.next37.i, %._crit_edge.us.i ]
  %.032.us.i = phi ptr [ %2, %4 ], [ %17, %._crit_edge.us.i ]
  %5 = mul nuw nsw i64 %indvars.iv36.i, 3
  %invariant.gep.us.i = getelementptr i8, ptr %0, i64 %5
  br label %6

6:                                                ; preds = %6, %.preheader.us.i
  %indvars.iv.i = phi i64 [ 0, %.preheader.us.i ], [ %indvars.iv.next.i, %6 ]
  %7 = mul nsw i64 %indvars.iv.i, %1
  %gep.us.i = getelementptr i8, ptr %invariant.gep.us.i, i64 %7
  %8 = load i8, ptr %gep.us.i, align 1, !tbaa !75
  %9 = getelementptr inbounds nuw i8, ptr %gep.us.i, i64 1
  %10 = load i8, ptr %9, align 1, !tbaa !75
  %11 = getelementptr inbounds nuw i8, ptr %gep.us.i, i64 2
  %12 = load i8, ptr %11, align 1, !tbaa !75
  %13 = mul nuw nsw i64 %indvars.iv.i, 3
  %14 = getelementptr inbounds nuw i8, ptr %.032.us.i, i64 %13
  %15 = getelementptr inbounds nuw i8, ptr %14, i64 2
  store i8 %12, ptr %15, align 1, !tbaa !75
  %16 = getelementptr inbounds nuw i8, ptr %14, i64 1
  store i8 %10, ptr %16, align 1, !tbaa !75
  store i8 %8, ptr %14, align 1, !tbaa !75
  %indvars.iv.next.i = add nuw nsw i64 %indvars.iv.i, 1
  %exitcond.not.i = icmp eq i64 %indvars.iv.next.i, 8
  br i1 %exitcond.not.i, label %._crit_edge.us.i, label %6, !llvm.loop !82

._crit_edge.us.i:                                 ; preds = %6
  %indvars.iv.next37.i = add nuw nsw i64 %indvars.iv36.i, 1
  %17 = getelementptr inbounds i8, ptr %.032.us.i, i64 %3
  %exitcond40.not.i = icmp eq i64 %indvars.iv.next37.i, 8
  br i1 %exitcond40.not.i, label %transpose_block_24_c.exit, label %.preheader.us.i, !llvm.loop !83

transpose_block_24_c.exit:                        ; preds = %._crit_edge.us.i
  ret void
}